target datalayout = "e-m:e-p270:32:32-p271:32:32-p272:64:64-i64:64-i128:128-f80:128-n8:16:32:64-S128"
target triple = "x86_64-pc-linux-gnu"

%struct.CVodeMemRec = type { double, ptr, ptr, i32, i32, i32, double, double, ptr, i32, ptr, ptr, i32, ptr, i32, i32, double, double, ptr, i32, i32, i32, ptr, ptr, ptr, i32, i32, ptr, ptr, ptr, i32, double, i32, i32, double, ptr, ptr, i32, ptr, ptr, i32, i32, i32, double, ptr, ptr, [13 x ptr], ptr, ptr, ptr, ptr, ptr, [13 x ptr], ptr, ptr, ptr, ptr, [13 x ptr], ptr, ptr, ptr, ptr, ptr, i32, [13 x ptr], ptr, ptr, ptr, ptr, ptr, i32, double, i32, i32, i32, i32, i32, double, double, double, double, double, double, double, double, [14 x double], [6 x double], [13 x double], double, double, double, double, double, double, double, double, double, double, double, i32, ptr, i32, i64, i32, i32, i32, i32, i32, double, double, double, i64, i64, i64, i64, i64, i64, i64, i64, i64, ptr, i64, i64, ptr, i64, i64, i64, i64, i64, i64, i32, i64, i64, i64, i64, i64, i64, double, double, double, ptr, ptr, ptr, ptr, ptr, i32, i32, i64, double, double, double, i32, double, i32, i32, i32, i32, i32, i32, i32, i32, i32, i32, i32, i32, i32, i32, i32, i32, ptr, ptr, ptr, i32, [6 x [4 x double]], i32, i64, ptr, i32, ptr, ptr, double, double, double, ptr, ptr, ptr, double, double, i32, i32, i64, ptr, i32, i32, ptr, i32 }

@.str = private unnamed_addr constant [7 x i8] c"CVODES\00", align 1
@.str.6 = private unnamed_addr constant [26 x i8] c"cvode_mem = NULL illegal.\00", align 1
@.str.7 = private unnamed_addr constant [19 x i8] c"y0 = NULL illegal.\00", align 1
@.str.11 = private unnamed_addr constant [12 x i8] c"CVodeReInit\00", align 1
@.str.12 = private unnamed_addr constant [34 x i8] c"Attempt to call before CVodeInit.\00", align 1

; Function Attrs: nounwind uwtable
define i32 @CVodeReInit(ptr noundef %0, double noundef %1, ptr noundef %2) #0 {
  %4 = alloca i32, align 4
  %5 = alloca ptr, align 8
  %6 = alloca double, align 8
  %7 = alloca ptr, align 8
  %8 = alloca ptr, align 8
  %9 = alloca i32, align 4
  %10 = alloca i32, align 4
  %11 = alloca i32, align 4
  store ptr %0, ptr %5, align 8, !tbaa !101
  store double %1, ptr %6, align 8, !tbaa !102
  store ptr %2, ptr %7, align 8, !tbaa !103
  call void @llvm.lifetime.start.p0(i64 8, ptr %8) #8
  call void @llvm.lifetime.start.p0(i64 4, ptr %9) #8
  call void @llvm.lifetime.start.p0(i64 4, ptr %10) #8
  %12 = load ptr, ptr %5, align 8, !tbaa !101
  %13 = icmp eq ptr %12, null
  br i1 %13, label %14, label %15

14:                                               ; preds = %3
  call void (ptr, i32, ptr, ptr, ptr, ...) @cvProcessError(ptr noundef null, i32 noundef -21, ptr noundef @.str, ptr noundef @.str.11, ptr noundef @.str.6)
  store i32 -21, ptr %4, align 4
  store i32 1, ptr %11, align 4
  br label %112

15:                                               ; preds = %3
  %16 = load ptr, ptr %5, align 8, !tbaa !101
  store ptr %16, ptr %8, align 8, !tbaa !7
  %17 = load ptr, ptr %8, align 8, !tbaa !7
  %18 = getelementptr inbounds nuw %struct.CVodeMemRec, ptr %17, i32 0, i32 160
  %19 = load i32, ptr %18, align 4, !tbaa !89
  %20 = icmp eq i32 %19, 0
  br i1 %20, label %21, label %23

21:                                               ; preds = %15
  %22 = load ptr, ptr %8, align 8, !tbaa !7
  call void (ptr, i32, ptr, ptr, ptr, ...) @cvProcessError(ptr noundef %22, i32 noundef -23, ptr noundef @.str, ptr noundef @.str.11, ptr noundef @.str.12)
  store i32 -23, ptr %4, align 4
  store i32 1, ptr %11, align 4
  br label %112

23:                                               ; preds = %15
  %24 = load ptr, ptr %7, align 8, !tbaa !103
  %25 = icmp eq ptr %24, null
  br i1 %25, label %26, label %28

26:                                               ; preds = %23
  %27 = load ptr, ptr %8, align 8, !tbaa !7
  call void (ptr, i32, ptr, ptr, ptr, ...) @cvProcessError(ptr noundef %27, i32 noundef -22, ptr noundef @.str, ptr noundef @.str.11, ptr noundef @.str.7)
  store i32 -22, ptr %4, align 4
  store i32 1, ptr %11, align 4
  br label %112

28:                                               ; preds = %23
  %29 = load double, ptr %6, align 8, !tbaa !102
  %30 = load ptr, ptr %8, align 8, !tbaa !7
  %31 = getelementptr inbounds nuw %struct.CVodeMemRec, ptr %30, i32 0, i32 83
  store double %29, ptr %31, align 8, !tbaa !118
  %32 = load ptr, ptr %8, align 8, !tbaa !7
  %33 = getelementptr inbounds nuw %struct.CVodeMemRec, ptr %32, i32 0, i32 72
  store i32 1, ptr %33, align 8, !tbaa !119
  %34 = load ptr, ptr %8, align 8, !tbaa !7
  %35 = getelementptr inbounds nuw %struct.CVodeMemRec, ptr %34, i32 0, i32 76
  store i32 2, ptr %35, align 8, !tbaa !120
  %36 = load ptr, ptr %8, align 8, !tbaa !7
  %37 = getelementptr inbounds nuw %struct.CVodeMemRec, ptr %36, i32 0, i32 76
  %38 = load i32, ptr %37, align 8, !tbaa !120
  %39 = load ptr, ptr %8, align 8, !tbaa !7
  %40 = getelementptr inbounds nuw %struct.CVodeMemRec, ptr %39, i32 0, i32 75
  store i32 %38, ptr %40, align 4, !tbaa !121
  %41 = load ptr, ptr %8, align 8, !tbaa !7
  %42 = getelementptr inbounds nuw %struct.CVodeMemRec, ptr %41, i32 0, i32 110
  store double 1.000000e+04, ptr %42, align 8, !tbaa !122
  %43 = load ptr, ptr %8, align 8, !tbaa !7
  %44 = getelementptr inbounds nuw %struct.CVodeMemRec, ptr %43, i32 0, i32 146
  store i32 0, ptr %44, align 4, !tbaa !123
  %45 = load ptr, ptr %8, align 8, !tbaa !7
  %46 = getelementptr inbounds nuw %struct.CVodeMemRec, ptr %45, i32 0, i32 149
  store double 0.000000e+00, ptr %46, align 8, !tbaa !124
  %47 = load ptr, ptr %8, align 8, !tbaa !7
  %48 = getelementptr inbounds nuw %struct.CVodeMemRec, ptr %47, i32 0, i32 152
  store double 1.000000e+00, ptr %48, align 8, !tbaa !125
  %49 = load ptr, ptr %8, align 8, !tbaa !7
  %50 = getelementptr inbounds nuw %struct.CVodeMemRec, ptr %49, i32 0, i32 145
  store i32 0, ptr %50, align 8, !tbaa !131
  %51 = load ptr, ptr %7, align 8, !tbaa !103
  %52 = load ptr, ptr %8, align 8, !tbaa !7
  %53 = getelementptr inbounds nuw %struct.CVodeMemRec, ptr %52, i32 0, i32 46
  %54 = getelementptr inbounds [13 x ptr], ptr %53, i64 0, i64 0
  %55 = load ptr, ptr %54, align 8, !tbaa !103
  call void @N_VScale(double noundef 1.000000e+00, ptr noundef %51, ptr noundef %55)
  %56 = load ptr, ptr %8, align 8, !tbaa !7
  %57 = getelementptr inbounds nuw %struct.CVodeMemRec, ptr %56, i32 0, i32 111
  store i64 0, ptr %57, align 8, !tbaa !132
  %58 = load ptr, ptr %8, align 8, !tbaa !7
  %59 = getelementptr inbounds nuw %struct.CVodeMemRec, ptr %58, i32 0, i32 112
  store i64 0, ptr %59, align 8, !tbaa !133
  %60 = load ptr, ptr %8, align 8, !tbaa !7
  %61 = getelementptr inbounds nuw %struct.CVodeMemRec, ptr %60, i32 0, i32 118
  store i64 0, ptr %61, align 8, !tbaa !134
  %62 = load ptr, ptr %8, align 8, !tbaa !7
  %63 = getelementptr inbounds nuw %struct.CVodeMemRec, ptr %62, i32 0, i32 124
  store i64 0, ptr %63, align 8, !tbaa !135
  %64 = load ptr, ptr %8, align 8, !tbaa !7
  %65 = getelementptr inbounds nuw %struct.CVodeMemRec, ptr %64, i32 0, i32 121
  store i64 0, ptr %65, align 8, !tbaa !136
  %66 = load ptr, ptr %8, align 8, !tbaa !7
  %67 = getelementptr inbounds nuw %struct.CVodeMemRec, ptr %66, i32 0, i32 128
  store i64 0, ptr %67, align 8, !tbaa !137
  %68 = load ptr, ptr %8, align 8, !tbaa !7
  %69 = getelementptr inbounds nuw %struct.CVodeMemRec, ptr %68, i32 0, i32 130
  store i32 0, ptr %69, align 8, !tbaa !138
  %70 = load ptr, ptr %8, align 8, !tbaa !7
  %71 = getelementptr inbounds nuw %struct.CVodeMemRec, ptr %70, i32 0, i32 147
  store i64 0, ptr %71, align 8, !tbaa !139
  %72 = load ptr, ptr %8, align 8, !tbaa !7
  %73 = getelementptr inbounds nuw %struct.CVodeMemRec, ptr %72, i32 0, i32 174
  store i32 0, ptr %73, align 8, !tbaa !140
  %74 = load ptr, ptr %8, align 8, !tbaa !7
  %75 = getelementptr inbounds nuw %struct.CVodeMemRec, ptr %74, i32 0, i32 190
  store i64 0, ptr %75, align 8, !tbaa !141
  %76 = load ptr, ptr %8, align 8, !tbaa !7
  %77 = getelementptr inbounds nuw %struct.CVodeMemRec, ptr %76, i32 0, i32 189
  store i32 0, ptr %77, align 4, !tbaa !142
  %78 = load ptr, ptr %8, align 8, !tbaa !7
  %79 = getelementptr inbounds nuw %struct.CVodeMemRec, ptr %78, i32 0, i32 148
  store double 0.000000e+00, ptr %79, align 8, !tbaa !143
  %80 = load ptr, ptr %8, align 8, !tbaa !7
  %81 = getelementptr inbounds nuw %struct.CVodeMemRec, ptr %80, i32 0, i32 80
  store double 0.000000e+00, ptr %81, align 8, !tbaa !144
  %82 = load ptr, ptr %8, align 8, !tbaa !7
  %83 = getelementptr inbounds nuw %struct.CVodeMemRec, ptr %82, i32 0, i32 74
  store i32 0, ptr %83, align 8, !tbaa !145
  %84 = load ptr, ptr %8, align 8, !tbaa !7
  %85 = getelementptr inbounds nuw %struct.CVodeMemRec, ptr %84, i32 0, i32 175
  store i64 0, ptr %85, align 8, !tbaa !146
  store i32 1, ptr %9, align 4, !tbaa !3
  br label %86

86:                                               ; preds = %108, %28
  %87 = load i32, ptr %9, align 4, !tbaa !3
  %88 = icmp sle i32 %87, 5
  br i1 %88, label %89, label %111

89:                                               ; preds = %86
  store i32 1, ptr %10, align 4, !tbaa !3
  br label %90

90:                                               ; preds = %104, %89
  %91 = load i32, ptr %10, align 4, !tbaa !3
  %92 = icmp sle i32 %91, 3
  br i1 %92, label %93, label %107

93:                                               ; preds = %90
  %94 = load ptr, ptr %8, align 8, !tbaa !7
  %95 = getelementptr inbounds nuw %struct.CVodeMemRec, ptr %94, i32 0, i32 173
  %96 = load i32, ptr %9, align 4, !tbaa !3
  %97 = sub nsw i32 %96, 1
  %98 = sext i32 %97 to i64
  %99 = getelementptr inbounds [6 x [4 x double]], ptr %95, i64 0, i64 %98
  %100 = load i32, ptr %10, align 4, !tbaa !3
  %101 = sub nsw i32 %100, 1
  %102 = sext i32 %101 to i64
  %103 = getelementptr inbounds [4 x double], ptr %99, i64 0, i64 %102
  store double 0.000000e+00, ptr %103, align 8, !tbaa !102
  br label %104

104:                                              ; preds = %93
  %105 = load i32, ptr %10, align 4, !tbaa !3
  %106 = add nsw i32 %105, 1
  store i32 %106, ptr %10, align 4, !tbaa !3
  br label %90, !llvm.loop !167

107:                                              ; preds = %90
  br label %108

108:                                              ; preds = %107
  %109 = load i32, ptr %9, align 4, !tbaa !3
  %110 = add nsw i32 %109, 1
  store i32 %110, ptr %9, align 4, !tbaa !3
  br label %86, !llvm.loop !168

111:                                              ; preds = %86
  store i32 0, ptr %4, align 4
  store i32 1, ptr %11, align 4
  br label %112

112:                                              ; preds = %111, %26, %21, %14
  call void @llvm.lifetime.end.p0(i64 4, ptr %10) #8
  call void @llvm.lifetime.end.p0(i64 4, ptr %9) #8
  call void @llvm.lifetime.end.p0(i64 8, ptr %8) #8
  %113 = load i32, ptr %4, align 4
  ret i32 %113
}