; Function Attrs: nounwind uwtable
define range(i32 -23, 1) i32 @CVodeReInit(ptr noundef captures(address_is_null) %0, double noundef %1, ptr noundef %2) local_unnamed_addr #0 {
  %4 = icmp eq ptr %0, null
  br i1 %4, label %5, label %6

5:                                                ; preds = %3
  tail call void (ptr, i32, ptr, ptr, ptr, ...) @cvProcessError(ptr noundef null, i32 noundef -21, ptr noundef nonnull @.str, ptr noundef nonnull @.str.11, ptr noundef nonnull @.str.6)
  br label %.loopexit

6:                                                ; preds = %3
  %7 = getelementptr inbounds nuw i8, ptr %0, i64 1788
  %8 = load i32, ptr %7, align 4, !tbaa !104
  %9 = icmp eq i32 %8, 0
  br i1 %9, label %10, label %11

10:                                               ; preds = %6
  tail call void (ptr, i32, ptr, ptr, ptr, ...) @cvProcessError(ptr noundef nonnull %0, i32 noundef -23, ptr noundef nonnull @.str, ptr noundef nonnull @.str.11, ptr noundef nonnull @.str.12)
  br label %.loopexit

11:                                               ; preds = %6
  %12 = icmp eq ptr %2, null
  br i1 %12, label %13, label %14

13:                                               ; preds = %11
  tail call void (ptr, i32, ptr, ptr, ptr, ...) @cvProcessError(ptr noundef nonnull %0, i32 noundef -22, ptr noundef nonnull @.str, ptr noundef nonnull @.str.11, ptr noundef nonnull @.str.7)
  br label %.loopexit

14:                                               ; preds = %11
  %15 = getelementptr inbounds nuw i8, ptr %0, i64 984
  store double %1, ptr %15, align 8, !tbaa !84
  %16 = getelementptr inbounds nuw i8, ptr %0, i64 912
  store i32 1, ptr %16, align 8, !tbaa !85
  %17 = getelementptr inbounds nuw i8, ptr %0, i64 928
  store i32 2, ptr %17, align 8, !tbaa !86
  %18 = getelementptr inbounds nuw i8, ptr %0, i64 924
  store i32 2, ptr %18, align 4, !tbaa !87
  %19 = getelementptr inbounds nuw i8, ptr %0, i64 1424
  store double 1.000000e+04, ptr %19, align 8, !tbaa !88
  %20 = getelementptr inbounds nuw i8, ptr %0, i64 1708
  store i32 0, ptr %20, align 4, !tbaa !89
  %21 = getelementptr inbounds nuw i8, ptr %0, i64 1728
  store double 0.000000e+00, ptr %21, align 8, !tbaa !90
  %22 = getelementptr inbounds nuw i8, ptr %0, i64 1752
  store double 1.000000e+00, ptr %22, align 8, !tbaa !91
  %23 = getelementptr inbounds nuw i8, ptr %0, i64 1704
  store i32 0, ptr %23, align 8, !tbaa !105
  %24 = getelementptr inbounds nuw i8, ptr %0, i64 320
  %25 = load ptr, ptr %24, align 8, !tbaa !46
  tail call void @N_VScale(double noundef 1.000000e+00, ptr noundef nonnull %2, ptr noundef %25) #13
  %26 = getelementptr inbounds nuw i8, ptr %0, i64 1432
  %27 = getelementptr inbounds nuw i8, ptr %0, i64 1488
  store i64 0, ptr %27, align 8, !tbaa !92
  %28 = getelementptr inbounds nuw i8, ptr %0, i64 1536
  store i64 0, ptr %28, align 8, !tbaa !93
  %29 = getelementptr inbounds nuw i8, ptr %0, i64 1512
  store i64 0, ptr %29, align 8, !tbaa !94
  %30 = getelementptr inbounds nuw i8, ptr %0, i64 1568
  store i64 0, ptr %30, align 8, !tbaa !95
  %31 = getelementptr inbounds nuw i8, ptr %0, i64 1584
  store i32 0, ptr %31, align 8, !tbaa !96
  %32 = getelementptr inbounds nuw i8, ptr %0, i64 1712
  %33 = getelementptr inbounds nuw i8, ptr %0, i64 2048
  store i32 0, ptr %33, align 8, !tbaa !97
  %34 = getelementptr inbounds nuw i8, ptr %0, i64 2168
  store i64 0, ptr %34, align 8, !tbaa !98
  %35 = getelementptr inbounds nuw i8, ptr %0, i64 2164
  store i32 0, ptr %35, align 4, !tbaa !99
  %36 = getelementptr inbounds nuw i8, ptr %0, i64 960
  store double 0.000000e+00, ptr %36, align 8, !tbaa !100
  %37 = getelementptr inbounds nuw i8, ptr %0, i64 920
  store i32 0, ptr %37, align 8, !tbaa !101
  %38 = getelementptr inbounds nuw i8, ptr %0, i64 2056
  store i64 0, ptr %38, align 8, !tbaa !102
  tail call void @llvm.memset.p0.i64(ptr noundef nonnull align 8 dereferenceable(16) %26, i8 0, i64 16, i1 false)
  tail call void @llvm.memset.p0.i64(ptr noundef nonnull align 8 dereferenceable(16) %32, i8 0, i64 16, i1 false)
  %invariant.gep = getelementptr i8, ptr %0, i64 1856
  br label %.preheader

.preheader:                                       ; preds = %14, %.preheader
  %indvar = phi i64 [ 0, %14 ], [ %indvar.next, %.preheader ]
  %39 = shl nuw nsw i64 %indvar, 5
  %gep = getelementptr i8, ptr %invariant.gep, i64 %39
  tail call void @llvm.memset.p0.i64(ptr noundef nonnull align 8 dereferenceable(24) %gep, i8 0, i64 24, i1 false), !tbaa !49
  %indvar.next = add nuw nsw i64 %indvar, 1
  %exitcond.not = icmp eq i64 %indvar.next, 5
  br i1 %exitcond.not, label %.loopexit, label %.preheader, !llvm.loop !106

.loopexit:                                        ; preds = %.preheader, %13, %10, %5
  %.042 = phi i32 [ -21, %5 ], [ -23, %10 ], [ -22, %13 ], [ 0, %.preheader ]
  ret i32 %.042
}